target datalayout = "e-m:e-p270:32:32-p271:32:32-p272:64:64-i64:64-i128:128-f80:128-n8:16:32:64-S128"
target triple = "x86_64-pc-linux-gnu"

%class.ExportDissectionDialog = type { %class.WiresharkFileDialog, i32, ptr, %struct.print_args_t, %class.QMap, %class.PacketRangeGroupBox, %class.PacketFormatGroupBox, ptr }
%class.WiresharkFileDialog = type { %class.QFileDialog }
%class.QFileDialog = type { %class.QDialog }
%class.QDialog = type { %class.QWidget }
%class.QWidget = type { %class.QObject, %class.QPaintDevice.base, ptr }
%class.QObject = type { ptr, %class.QScopedPointer }
%class.QScopedPointer = type { ptr }
%class.QPaintDevice.base = type <{ ptr, i16 }>
%struct.print_args_t = type { ptr, i32, i8, ptr, ptr, %struct.packet_range_tag, i8, i8, i32, i8, i32, i8 }
%struct.packet_range_tag = type { i32, i8, i8, i8, ptr, i32, ptr, i32, ptr, i32, i32, i32, i32, i32, i32, i32, i32, i32, i32, i32, i32, i32, i32, i32, i32, i32, i32, i32, i32, i32, i32, i32, i32, i32, i32, i32, ptr, ptr, ptr, ptr, ptr, ptr, ptr, ptr, i8, i32 }
%class.QMap = type { %"class.QtPrivate::QExplicitlySharedDataPointerV2" }
%"class.QtPrivate::QExplicitlySharedDataPointerV2" = type { ptr }
%class.PacketRangeGroupBox = type <{ %class.QGroupBox, ptr, ptr, i32, [4 x i8] }>
%class.QGroupBox = type { %class.QWidget }
%class.PacketFormatGroupBox = type { %class.QGroupBox, ptr }

; Function Attrs: mustprogress null_pointer_is_valid sspstrong uwtable
define void @_ZN22ExportDissectionDialog4showEv(ptr noundef align 8 dereferenceable_or_null(472) %0) #7 align 2 {
  %2 = alloca ptr, align 8
  store ptr %0, ptr %2, align 8
  %3 = load ptr, ptr %2, align 8
  %4 = getelementptr inbounds nuw %class.ExportDissectionDialog, ptr %3, i32 0, i32 2
  %5 = load ptr, ptr %4, align 8
  %6 = icmp ne ptr %5, null
  br i1 %6, label %7, label %8

7:                                                ; preds = %1
  call void @_ZN7QWidget4showEv(ptr noundef align 8 dereferenceable_or_null(40) %3)
  br label %8

8:                                                ; preds = %7, %1
  ret void
}